target datalayout = "e-m:e-p270:32:32-p271:32:32-p272:64:64-i64:64-i128:128-f80:128-n8:16:32:64-S128"
target triple = "x86_64-pc-linux-gnu"

%struct.timespec = type { i64, i64 }

@.str.2 = private unnamed_addr constant [14 x i8] c"sem_clockwait\00", align 1
@.str.3 = private unnamed_addr constant [12 x i8] c"sem_trywait\00", align 1
@.str.4 = private unnamed_addr constant [9 x i8] c"sem_wait\00", align 1

; Function Attrs: nounwind uwtable
define internal i32 @fix_status(i32 noundef %0) #0 {
  %2 = alloca i32, align 4
  store i32 %0, ptr %2, align 4, !tbaa !175
  %3 = load i32, ptr %2, align 4, !tbaa !175
  %4 = icmp eq i32 %3, -1
  br i1 %4, label %5, label %8

5:                                                ; preds = %1
  %6 = call ptr @__errno_location() #12
  %7 = load i32, ptr %6, align 4, !tbaa !175
  br label %10

8:                                                ; preds = %1
  %9 = load i32, ptr %2, align 4, !tbaa !175
  br label %10

10:                                               ; preds = %8, %5
  %11 = phi i32 [ %7, %5 ], [ %9, %8 ]
  ret i32 %11
}

; Function Attrs: nounwind uwtable
define dso_local i32 @PyThread_acquire_lock_timed(ptr noundef %0, i64 noundef %1, i32 noundef %2) #0 {
  %4 = alloca ptr, align 8
  %5 = alloca i64, align 8
  %6 = alloca i32, align 4
  %7 = alloca i32, align 4
  %8 = alloca ptr, align 8
  %9 = alloca i32, align 4
  %10 = alloca i32, align 4
  %11 = alloca i64, align 8
  %12 = alloca %struct.timespec, align 8
  %13 = alloca i64, align 8
  %14 = alloca i64, align 8
  store ptr %0, ptr %4, align 8, !tbaa !176
  store i64 %1, ptr %5, align 8, !tbaa !178
  store i32 %2, ptr %6, align 4, !tbaa !175
  call void @llvm.lifetime.start.p0(i64 4, ptr %7) #11
  call void @llvm.lifetime.start.p0(i64 8, ptr %8) #11
  %15 = load ptr, ptr %4, align 8, !tbaa !176
  store ptr %15, ptr %8, align 8, !tbaa !176
  call void @llvm.lifetime.start.p0(i64 4, ptr %9) #11
  call void @llvm.lifetime.start.p0(i64 4, ptr %10) #11
  store i32 0, ptr %10, align 4, !tbaa !175
  call void @llvm.lifetime.start.p0(i64 8, ptr %11) #11
  %16 = load i64, ptr %5, align 8, !tbaa !178
  %17 = icmp sge i64 %16, 0
  br i1 %17, label %18, label %21

18:                                               ; preds = %3
  %19 = load i64, ptr %5, align 8, !tbaa !178
  %20 = call i64 @_PyTime_FromMicrosecondsClamp(i64 noundef %19)
  store i64 %20, ptr %11, align 8, !tbaa !181
  br label %22

21:                                               ; preds = %3
  store i64 -1, ptr %11, align 8, !tbaa !181
  br label %22

22:                                               ; preds = %21, %18
  call void @llvm.lifetime.start.p0(i64 16, ptr %12) #11
  call void @llvm.lifetime.start.p0(i64 8, ptr %13) #11
  %23 = call i32 @PyTime_MonotonicRaw(ptr noundef %13)
  call void @llvm.lifetime.start.p0(i64 8, ptr %14) #11
  %24 = load i64, ptr %13, align 8, !tbaa !181
  %25 = load i64, ptr %11, align 8, !tbaa !181
  %26 = call i64 @_PyTime_Add(i64 noundef %24, i64 noundef %25)
  store i64 %26, ptr %14, align 8, !tbaa !181
  %27 = load i64, ptr %14, align 8, !tbaa !181
  call void @_PyTime_AsTimespec_clamp(i64 noundef %27, ptr noundef %12)
  call void @llvm.lifetime.end.p0(i64 8, ptr %14) #11
  call void @llvm.lifetime.end.p0(i64 8, ptr %13) #11
  br label %28

28:                                               ; preds = %55, %22
  br label %29

29:                                               ; preds = %28
  %30 = load i64, ptr %11, align 8, !tbaa !181
  %31 = icmp sgt i64 %30, 0
  br i1 %31, label %32, label %36

32:                                               ; preds = %29
  %33 = load ptr, ptr %8, align 8, !tbaa !176
  %34 = call i32 @sem_clockwait(ptr noundef %33, i32 noundef 1, ptr noundef %12)
  %35 = call i32 @fix_status(i32 noundef %34)
  store i32 %35, ptr %9, align 4, !tbaa !175
  br label %48

36:                                               ; preds = %29
  %37 = load i64, ptr %11, align 8, !tbaa !181
  %38 = icmp eq i64 %37, 0
  br i1 %38, label %39, label %43

39:                                               ; preds = %36
  %40 = load ptr, ptr %8, align 8, !tbaa !176
  %41 = call i32 @sem_trywait(ptr noundef %40) #11
  %42 = call i32 @fix_status(i32 noundef %41)
  store i32 %42, ptr %9, align 4, !tbaa !175
  br label %47

43:                                               ; preds = %36
  %44 = load ptr, ptr %8, align 8, !tbaa !176
  %45 = call i32 @sem_wait(ptr noundef %44)
  %46 = call i32 @fix_status(i32 noundef %45)
  store i32 %46, ptr %9, align 4, !tbaa !175
  br label %47

47:                                               ; preds = %43, %39
  br label %48

48:                                               ; preds = %47, %32
  %49 = load i32, ptr %6, align 4, !tbaa !175
  %50 = icmp ne i32 %49, 0
  br i1 %50, label %54, label %51

51:                                               ; preds = %48
  %52 = load i32, ptr %9, align 4, !tbaa !175
  %53 = icmp ne i32 %52, 4
  br i1 %53, label %54, label %55

54:                                               ; preds = %51, %48
  br label %56

55:                                               ; preds = %51
  br label %28

56:                                               ; preds = %54
  %57 = load i32, ptr %6, align 4, !tbaa !175
  %58 = icmp ne i32 %57, 0
  br i1 %58, label %59, label %62

59:                                               ; preds = %56
  %60 = load i32, ptr %9, align 4, !tbaa !175
  %61 = icmp eq i32 %60, 4
  br i1 %61, label %93, label %62

62:                                               ; preds = %59, %56
  %63 = load i64, ptr %11, align 8, !tbaa !181
  %64 = icmp sgt i64 %63, 0
  br i1 %64, label %65, label %74

65:                                               ; preds = %62
  %66 = load i32, ptr %9, align 4, !tbaa !175
  %67 = icmp ne i32 %66, 110
  br i1 %67, label %68, label %73

68:                                               ; preds = %65
  %69 = load i32, ptr %9, align 4, !tbaa !175
  %70 = icmp ne i32 %69, 0
  br i1 %70, label %71, label %72

71:                                               ; preds = %68
  call void @perror(ptr noundef @.str.2)
  store i32 1, ptr %10, align 4, !tbaa !175
  br label %72

72:                                               ; preds = %71, %68
  br label %73

73:                                               ; preds = %72, %65
  br label %92

74:                                               ; preds = %62
  %75 = load i64, ptr %11, align 8, !tbaa !181
  %76 = icmp eq i64 %75, 0
  br i1 %76, label %77, label %86

77:                                               ; preds = %74
  %78 = load i32, ptr %9, align 4, !tbaa !175
  %79 = icmp ne i32 %78, 11
  br i1 %79, label %80, label %85

80:                                               ; preds = %77
  %81 = load i32, ptr %9, align 4, !tbaa !175
  %82 = icmp ne i32 %81, 0
  br i1 %82, label %83, label %84

83:                                               ; preds = %80
  call void @perror(ptr noundef @.str.3)
  store i32 1, ptr %10, align 4, !tbaa !175
  br label %84

84:                                               ; preds = %83, %80
  br label %85

85:                                               ; preds = %84, %77
  br label %91

86:                                               ; preds = %74
  %87 = load i32, ptr %9, align 4, !tbaa !175
  %88 = icmp ne i32 %87, 0
  br i1 %88, label %89, label %90

89:                                               ; preds = %86
  call void @perror(ptr noundef @.str.4)
  store i32 1, ptr %10, align 4, !tbaa !175
  br label %90

90:                                               ; preds = %89, %86
  br label %91

91:                                               ; preds = %90, %85
  br label %92

92:                                               ; preds = %91, %73
  br label %93

93:                                               ; preds = %92, %59
  %94 = load i32, ptr %9, align 4, !tbaa !175
  %95 = icmp eq i32 %94, 0
  br i1 %95, label %96, label %97

96:                                               ; preds = %93
  store i32 1, ptr %7, align 4, !tbaa !175
  br label %106

97:                                               ; preds = %93
  %98 = load i32, ptr %6, align 4, !tbaa !175
  %99 = icmp ne i32 %98, 0
  br i1 %99, label %100, label %104

100:                                              ; preds = %97
  %101 = load i32, ptr %9, align 4, !tbaa !175
  %102 = icmp eq i32 %101, 4
  br i1 %102, label %103, label %104

103:                                              ; preds = %100
  store i32 2, ptr %7, align 4, !tbaa !175
  br label %105

104:                                              ; preds = %100, %97
  store i32 0, ptr %7, align 4, !tbaa !175
  br label %105

105:                                              ; preds = %104, %103
  br label %106

106:                                              ; preds = %105, %96
  %107 = load i32, ptr %7, align 4, !tbaa !175
  call void @llvm.lifetime.end.p0(i64 16, ptr %12) #11
  call void @llvm.lifetime.end.p0(i64 8, ptr %11) #11
  call void @llvm.lifetime.end.p0(i64 4, ptr %10) #11
  call void @llvm.lifetime.end.p0(i64 4, ptr %9) #11
  call void @llvm.lifetime.end.p0(i64 8, ptr %8) #11
  call void @llvm.lifetime.end.p0(i64 4, ptr %7) #11
  ret i32 %107
}