; Function Attrs: nounwind uwtable
define dso_local range(i32 0, 3) i32 @PyThread_acquire_lock_timed(ptr noundef %0, i64 noundef %1, i32 noundef %2) local_unnamed_addr #0 {
  %4 = alloca %struct.timespec, align 8
  %5 = alloca i64, align 8
  %6 = icmp sgt i64 %1, -1
  br i1 %6, label %7, label %9

7:                                                ; preds = %3
  %8 = tail call i64 @_PyTime_FromMicrosecondsClamp(i64 noundef %1) #13
  br label %9

9:                                                ; preds = %3, %7
  %.033 = phi i64 [ %8, %7 ], [ -1, %3 ]
  call void @llvm.lifetime.start.p0(i64 16, ptr nonnull %4) #13
  call void @llvm.lifetime.start.p0(i64 8, ptr nonnull %5) #13
  %10 = call i32 @PyTime_MonotonicRaw(ptr noundef nonnull %5) #13
  %11 = load i64, ptr %5, align 8, !tbaa !176
  %12 = call i64 @_PyTime_Add(i64 noundef %11, i64 noundef %.033) #13
  call void @_PyTime_AsTimespec_clamp(i64 noundef %12, ptr noundef nonnull %4) #13
  call void @llvm.lifetime.end.p0(i64 8, ptr nonnull %5) #13
  %13 = icmp sgt i64 %.033, 0
  %.not = icmp eq i32 %2, 0
  br i1 %13, label %.split.us, label %.split

.split.us:                                        ; preds = %9
  br i1 %.not, label %.split.us.split, label %.split.us.split.us

.split.us.split.us:                               ; preds = %.split.us
  %14 = call i32 @sem_clockwait(ptr noundef %0, i32 noundef 1, ptr noundef nonnull %4) #13
  %15 = icmp eq i32 %14, -1
  br i1 %15, label %.split40.us.sink.split, label %.split40.us

.split.us.split:                                  ; preds = %.split.us, %fix_status.exit.us
  %16 = call i32 @sem_clockwait(ptr noundef %0, i32 noundef 1, ptr noundef nonnull %4) #13
  %17 = icmp eq i32 %16, -1
  br i1 %17, label %18, label %fix_status.exit.us

18:                                               ; preds = %.split.us.split
  %19 = tail call ptr @__errno_location() #14
  %20 = load i32, ptr %19, align 4, !tbaa !184
  br label %fix_status.exit.us

fix_status.exit.us:                               ; preds = %18, %.split.us.split
  %.034.us = phi i32 [ %20, %18 ], [ %16, %.split.us.split ]
  %.not69 = icmp eq i32 %.034.us, 4
  br i1 %.not69, label %.split.us.split, label %.split40.us.thread

.split:                                           ; preds = %9
  %21 = icmp eq i64 %.033, 0
  br i1 %21, label %.split.split.us, label %.split.split

.split.split.us:                                  ; preds = %.split
  br i1 %.not, label %.split.split.us.split, label %.split.split.us.split.us

.split.split.us.split.us:                         ; preds = %.split.split.us
  %22 = call i32 @sem_trywait(ptr noundef %0) #13
  %23 = icmp eq i32 %22, -1
  br i1 %23, label %.split40.us.sink.split, label %.split40.us

.split.split.us.split:                            ; preds = %.split.split.us, %fix_status.exit.us43
  %24 = call i32 @sem_trywait(ptr noundef %0) #13
  %25 = icmp eq i32 %24, -1
  br i1 %25, label %26, label %fix_status.exit.us43

26:                                               ; preds = %.split.split.us.split
  %27 = tail call ptr @__errno_location() #14
  %28 = load i32, ptr %27, align 4, !tbaa !184
  br label %fix_status.exit.us43

fix_status.exit.us43:                             ; preds = %26, %.split.split.us.split
  %.034.us44 = phi i32 [ %28, %26 ], [ %24, %.split.split.us.split ]
  %.not68 = icmp eq i32 %.034.us44, 4
  br i1 %.not68, label %.split.split.us.split, label %.split40.us.thread

.split.split:                                     ; preds = %.split
  br i1 %.not, label %.split.split.split, label %.split.split.split.us

.split.split.split.us:                            ; preds = %.split.split
  %29 = call i32 @sem_wait(ptr noundef %0) #13
  %30 = icmp eq i32 %29, -1
  br i1 %30, label %.split40.us.sink.split, label %.split40.us

.split.split.split:                               ; preds = %.split.split, %fix_status.exit
  %31 = call i32 @sem_wait(ptr noundef %0) #13
  %32 = icmp eq i32 %31, -1
  br i1 %32, label %33, label %fix_status.exit

33:                                               ; preds = %.split.split.split
  %34 = tail call ptr @__errno_location() #14
  %35 = load i32, ptr %34, align 4, !tbaa !184
  br label %fix_status.exit

fix_status.exit:                                  ; preds = %33, %.split.split.split
  %.034 = phi i32 [ %35, %33 ], [ %31, %.split.split.split ]
  %.not67 = icmp eq i32 %.034, 4
  br i1 %.not67, label %.split.split.split, label %.split40.us.thread

.split40.us.sink.split:                           ; preds = %.split.split.split.us, %.split.split.us.split.us, %.split.us.split.us
  %36 = tail call ptr @__errno_location() #14
  %37 = load i32, ptr %36, align 4, !tbaa !184
  br label %.split40.us

.split40.us:                                      ; preds = %.split40.us.sink.split, %.split.split.us.split.us, %.split.split.split.us, %.split.us.split.us
  %.us-phi = phi i32 [ %14, %.split.us.split.us ], [ %22, %.split.split.us.split.us ], [ %29, %.split.split.split.us ], [ %37, %.split40.us.sink.split ]
  %38 = icmp eq i32 %.us-phi, 4
  br i1 %38, label %.thread, label %.split40.us.thread

.split40.us.thread:                               ; preds = %fix_status.exit, %fix_status.exit.us43, %fix_status.exit.us, %.split40.us
  %.us-phi75 = phi i32 [ %.us-phi, %.split40.us ], [ %.034.us, %fix_status.exit.us ], [ %.034.us44, %fix_status.exit.us43 ], [ %.034, %fix_status.exit ]
  br i1 %13, label %39, label %40

39:                                               ; preds = %.split40.us.thread
  switch i32 %.us-phi75, label %45 [
    i32 0, label %47
    i32 110, label %.thread
  ]

40:                                               ; preds = %.split40.us.thread
  %41 = icmp eq i64 %.033, 0
  br i1 %41, label %42, label %43

42:                                               ; preds = %40
  switch i32 %.us-phi75, label %45 [
    i32 0, label %47
    i32 11, label %.thread
  ]

43:                                               ; preds = %40
  %cond = icmp eq i32 %.us-phi75, 0
  br i1 %cond, label %47, label %44

44:                                               ; preds = %43
  call void @perror(ptr noundef nonnull @.str.4) #16
  br label %.thread

45:                                               ; preds = %42, %39
  %.str.2.sink = phi ptr [ @.str.2, %39 ], [ @.str.3, %42 ]
  call void @perror(ptr noundef nonnull %.str.2.sink) #16
  %46 = icmp eq i32 %.us-phi75, 0
  br i1 %46, label %47, label %.thread

.thread:                                          ; preds = %.split40.us, %44, %42, %39, %45
  %. = phi i32 [ 2, %.split40.us ], [ 0, %44 ], [ 0, %42 ], [ 0, %39 ], [ 0, %45 ]
  br label %47

47:                                               ; preds = %43, %.thread, %45, %39, %42
  %.0 = phi i32 [ 1, %42 ], [ 1, %39 ], [ 1, %43 ], [ 1, %45 ], [ %., %.thread ]
  call void @llvm.lifetime.end.p0(i64 16, ptr nonnull %4) #13
  ret i32 %.0
}